Certificate:
    Data:
        Version: 3 (0x2)
        Serial Number: 43 (0x2b)
    Signature Algorithm: sha512WithRSAEncryption
        Issuer: C=US, ST=Virginia, L=Harrisonburg, O=JMU, OU=CS, CN=Crypto RSA CA - 2014/emailAddress=wangxx@jmu.edu
        Validity
            Not Before: Aug 30 01:12:45 2014 GMT
            Not After : Feb 26 01:12:45 2015 GMT
        Subject: C=US, ST=VA, L=Harrisonburg, O=JMU, OU=CS, CN=CS685 TLS Server JOSH FEEHS
        Subject Public Key Info:
            Public Key Algorithm: rsaEncryption
                Public-Key: (2048 bit)
                Modulus:
                    00:81:42:69:0e:f1:a0:f1:c4:86:9f:29:df:73:ad:
                    98:8c:ba:e9:d6:9b:c8:58:2a:d2:81:f9:b4:5c:be:
                    8e:f8:23:97:a3:d7:a1:c2:c5:8b:54:5d:a2:c9:9d:
                    a1:e4:50:6c:fa:e3:44:d6:66:ad:6c:79:28:f6:d6:
                    64:18:25:e7:f1:91:37:27:46:48:5e:51:73:34:e9:
                    bd:44:a5:bb:e4:bc:eb:b7:93:28:a5:05:52:4b:66:
                    23:49:45:d5:dd:59:5d:a7:95:2d:40:4e:a2:74:86:
                    72:38:8d:a2:0a:4b:df:45:fa:ae:43:c0:16:95:da:
                    f3:86:b8:6c:60:58:57:e7:3e:ca:e2:7c:42:ea:9f:
                    1d:07:e0:d5:4b:ab:cd:8d:4d:cb:98:a8:aa:24:12:
                    bf:44:79:b1:b0:80:7b:fd:8c:eb:9d:6d:9a:ee:92:
                    de:93:e2:c7:34:e2:59:cc:8a:b8:04:8d:89:c5:0f:
                    d1:38:78:78:31:3e:86:37:f4:b9:a9:8e:6f:a2:ab:
                    10:8f:27:a6:f4:c5:b1:42:bc:ca:a6:3e:f7:e0:39:
                    71:37:ea:bd:3d:f5:19:9b:22:2a:7a:94:9b:a1:3e:
                    05:7c:3e:48:2e:da:36:c1:47:b4:da:e8:b7:dd:f3:
                    09:c0:58:59:f2:3a:16:d4:05:5d:73:aa:33:b0:75:
                    54:0b
                Exponent: 65537 (0x10001)
        X509v3 extensions:
            X509v3 Basic Constraints: 
                CA:FALSE
            Netscape Comment: 
                OpenSSL Generated Certificate
            X509v3 Subject Key Identifier: 
                8A:9F:9D:78:4C:B2:36:A3:CB:78:E2:2A:56:37:C2:44:D0:21:38:FC
            X509v3 Authority Key Identifier: 
                keyid:E3:DD:F6:C4:46:8D:52:02:B8:FA:7C:05:25:1F:B0:65:F9:8F:AB:CF
                DirName:/C=US/ST=Virginia/L=Harrisonburg/O=JMU/OU=CS/CN=Crypto RSA CA - 2014/emailAddress=wangxx@jmu.edu
                serial:86:C6:84:22:83:8D:C2:BE

    Signature Algorithm: sha512WithRSAEncryption
         b0:93:0c:82:e5:4c:9a:ee:24:23:7a:84:d4:61:06:e2:ca:9d:
         80:64:57:c0:3e:17:af:79:72:3e:2a:96:b2:08:61:13:a0:aa:
         20:c5:36:b7:25:bb:0f:2a:af:8e:60:05:90:96:de:a4:07:ba:
         7d:74:27:c5:de:fd:a4:3f:af:a4:f3:2b:53:1a:63:f0:f1:c4:
         d0:9d:b1:69:6b:22:53:1c:78:a3:a3:e1:a9:63:d2:0f:1c:eb:
         54:e4:9f:3b:19:50:f1:89:b6:5f:b7:a8:29:e9:6f:d5:f4:a5:
         ce:aa:f9:f0:cb:37:35:b1:9e:18:f2:b5:3a:35:b2:b6:fb:42:
         11:30:9e:38:d5:bc:ac:92:11:96:90:a8:e6:a9:98:a8:cf:27:
         f5:3f:1d:e3:fd:f4:52:ab:a5:0b:5f:12:c2:bd:6d:5a:88:ae:
         3b:69:ab:8a:86:9e:ef:72:c3:b2:0a:2c:6e:d2:f0:f4:69:7a:
         36:7c:94:e7:d1:48:d7:c4:b5:d3:54:f5:72:77:e3:81:4c:29:
         46:f7:f2:00:63:6d:d9:77:94:c2:44:31:95:b8:2e:38:87:6c:
         66:9a:03:99:1b:a7:ef:6c:04:5f:6b:9a:7c:3f:10:0a:0e:df:
         d0:9c:dd:65:cc:f3:ba:42:8a:a4:8b:01:b8:62:20:ab:e2:c7:
         a2:0b:55:f9:47:f4:43:16:2f:f8:83:9d:ef:1f:7f:c0:69:22:
         fa:57:c6:a0:8c:c0:35:d5:25:6a:ed:fc:cb:67:6d:b5:39:29:
         dd:38:cc:c0:5f:7c:85:58:2a:d8:ed:58:e9:cd:2e:09:ef:fd:
         25:97:8c:8e:c7:06:4b:36:57:65:5a:8f:2f:e8:6c:13:1d:c9:
         33:df:cf:b4:40:c8:87:c6:eb:cf:5a:11:ea:95:ee:5b:5b:15:
         82:76:16:3c:89:b1:3b:4c:09:3a:3b:94:0b:30:19:b5:6a:af:
         a4:dc:be:79:e8:12:2f:ed:b2:0a:a2:bf:e5:d9:b7:f9:7d:c6:
         d9:2c:93:0f:5b:af:d3:1a:b0:f7:88:35:db:46:14:88:92:e8:
         bc:a2:a6:60:89:77:bf:45:47:57:25:70:16:ae:fc:06:e6:0b:
         df:3c:54:d8:bb:8f:38:50:c4:ac:31:db:3c:d7:ab:a0:05:14:
         15:0b:92:6c:4e:b0:51:ef:7f:72:55:86:d0:0b:83:87:a0:d4:
         ae:f1:b6:96:af:cb:b5:fa:80:60:b5:b8:ae:b5:08:f5:53:5c:
         cf:35:9d:06:c0:6d:7c:1b:07:1a:2b:05:bb:fa:ad:73:46:10:
         43:f5:21:13:0b:7f:83:18:19:ca:55:9a:45:3e:0c:e4:9e:f4:
         fb:f8:ee:7a:53:4b:10:4e
-----BEGIN CERTIFICATE-----
MIIFpDCCA4ygAwIBAgIBKzANBgkqhkiG9w0BAQ0FADCBkDELMAkGA1UEBhMCVVMx
ETAPBgNVBAgMCFZpcmdpbmlhMRUwEwYDVQQHDAxIYXJyaXNvbmJ1cmcxDDAKBgNV
BAoMA0pNVTELMAkGA1UECwwCQ1MxHTAbBgNVBAMMFENyeXB0byBSU0EgQ0EgLSAy
MDE0MR0wGwYJKoZIhvcNAQkBFg53YW5neHhAam11LmVkdTAeFw0xNDA4MzAwMTEy
NDVaFw0xNTAyMjYwMTEyNDVaMHIxCzAJBgNVBAYTAlVTMQswCQYDVQQIEwJWQTEV
MBMGA1UEBxMMSGFycmlzb25idXJnMQwwCgYDVQQKEwNKTVUxCzAJBgNVBAsTAkNT
MSQwIgYDVQQDExtDUzY4NSBUTFMgU2VydmVyIEpPU0ggRkVFSFMwggEiMA0GCSqG
SIb3DQEBAQUAA4IBDwAwggEKAoIBAQCBQmkO8aDxxIafKd9zrZiMuunWm8hYKtKB
+bRcvo74I5ej16HCxYtUXaLJnaHkUGz640TWZq1seSj21mQYJefxkTcnRkheUXM0
6b1EpbvkvOu3kyilBVJLZiNJRdXdWV2nlS1ATqJ0hnI4jaIKS99F+q5DwBaV2vOG
uGxgWFfnPsrifELqnx0H4NVLq82NTcuYqKokEr9EebGwgHv9jOudbZrukt6T4sc0
4lnMirgEjYnFD9E4eHgxPoY39Lmpjm+iqxCPJ6b0xbFCvMqmPvfgOXE36r099Rmb
Iip6lJuhPgV8Pkgu2jbBR7Ta6Lfd8wnAWFnyOhbUBV1zqjOwdVQLAgMBAAGjggEk
MIIBIDAJBgNVHRMEAjAAMCwGCWCGSAGG+EIBDQQfFh1PcGVuU1NMIEdlbmVyYXRl
ZCBDZXJ0aWZpY2F0ZTAdBgNVHQ4EFgQUip+deEyyNqPLeOIqVjfCRNAhOPwwgcUG
A1UdIwSBvTCBuoAU4932xEaNUgK4+nwFJR+wZfmPq8+hgZakgZMwgZAxCzAJBgNV
BAYTAlVTMREwDwYDVQQIDAhWaXJnaW5pYTEVMBMGA1UEBwwMSGFycmlzb25idXJn
MQwwCgYDVQQKDANKTVUxCzAJBgNVBAsMAkNTMR0wGwYDVQQDDBRDcnlwdG8gUlNB
IENBIC0gMjAxNDEdMBsGCSqGSIb3DQEJARYOd2FuZ3h4QGptdS5lZHWCCQCGxoQi
g43CvjANBgkqhkiG9w0BAQ0FAAOCAgEAsJMMguVMmu4kI3qE1GEG4sqdgGRXwD4X
r3lyPiqWsghhE6CqIMU2tyW7DyqvjmAFkJbepAe6fXQnxd79pD+vpPMrUxpj8PHE
0J2xaWsiUxx4o6PhqWPSDxzrVOSfOxlQ8Ym2X7eoKelv1fSlzqr58Ms3NbGeGPK1
OjWytvtCETCeONW8rJIRlpCo5qmYqM8n9T8d4/30UqulC18Swr1tWoiuO2mrioae
73LDsgosbtLw9Gl6NnyU59FI18S101T1cnfjgUwpRvfyAGNt2XeUwkQxlbguOIds
ZpoDmRun72wEX2uafD8QCg7f0JzdZczzukKKpIsBuGIgq+LHogtV+Uf0QxYv+IOd
7x9/wGki+lfGoIzANdUlau38y2dttTkp3TjMwF98hVgq2O1Y6c0uCe/9JZeMjscG
SzZXZVqPL+hsEx3JM9/PtEDIh8brz1oR6pXuW1sVgnYWPImxO0wJOjuUCzAZtWqv
pNy+eegSL+2yCqK/5dm3+X3G2SyTD1uv0xqw94g120YUiJLovKKmYIl3v0VHVyVw
Fq78BuYL3zxU2LuPOFDErDHbPNeroAUUFQuSbE6wUe9/clWG0AuDh6DUrvG2lq/L
tfqAYLW4rrUI9VNczzWdBsBtfBsHGisFu/qtc0YQQ/UhEwt/gxgZylWaRT4M5J70
+/juelNLEE4=
-----END CERTIFICATE-----
