Certificate:
    Data:
        Version: 3 (0x2)
        Serial Number: 42 (0x2a)
    Signature Algorithm: sha512WithRSAEncryption
        Issuer: C=US, ST=Virginia, L=Harrisonburg, O=JMU, OU=CS, CN=Crypto RSA CA - 2014/emailAddress=wangxx@jmu.edu
        Validity
            Not Before: Aug 30 01:11:03 2014 GMT
            Not After : Feb 26 01:11:03 2015 GMT
        Subject: C=US, ST=VA, L=Harrisonburg, O=JMU, OU=CS, CN=CS685 TLS Client JOSH FEEHS
        Subject Public Key Info:
            Public Key Algorithm: rsaEncryption
                Public-Key: (2048 bit)
                Modulus:
                    00:b6:ac:f9:4d:3c:a8:76:ae:83:29:0c:3f:65:91:
                    17:4c:8c:18:d4:f9:7f:bf:5a:c7:7b:af:b1:00:82:
                    13:3d:1f:90:91:51:b8:19:9f:a2:e8:c0:b0:5d:03:
                    a9:69:b6:a9:bd:7c:34:c2:b4:ee:df:62:1a:99:02:
                    1c:dd:d8:6d:d1:ef:8f:45:02:b7:ed:dd:f4:ce:22:
                    84:00:98:65:b8:88:a4:56:63:47:a5:f2:e1:8a:e1:
                    44:f3:0c:88:94:f3:e7:7e:65:19:bf:5e:99:0e:8b:
                    94:87:24:8c:4f:ed:9f:ea:d4:4d:b5:04:68:5a:26:
                    55:06:a8:52:d8:6d:2d:ab:8d:37:8d:6f:15:77:c5:
                    61:c3:1a:20:f5:26:db:d3:5e:c1:ef:c3:76:04:72:
                    9f:da:b2:81:9e:de:85:52:ed:3d:67:d9:ea:53:62:
                    63:80:d7:76:52:eb:bb:d7:63:8f:f2:96:1e:89:7d:
                    79:b4:b7:b8:aa:18:0d:d7:92:bb:90:f4:4a:a6:02:
                    83:ec:93:fe:91:53:2f:6f:4f:d4:ab:9c:17:43:56:
                    c8:bf:8b:22:b6:d9:d5:56:a6:60:b4:15:87:f6:41:
                    77:f4:35:12:d5:fa:9c:cf:3e:27:82:df:e2:58:e8:
                    4a:d1:fa:3b:0f:f7:1a:9d:56:b1:52:a0:a9:b0:63:
                    df:ed
                Exponent: 65537 (0x10001)
        X509v3 extensions:
            X509v3 Basic Constraints: 
                CA:FALSE
            Netscape Comment: 
                OpenSSL Generated Certificate
            X509v3 Subject Key Identifier: 
                01:B6:95:A5:F1:86:F1:77:1A:A8:BF:B1:58:62:29:BE:29:5B:79:6E
            X509v3 Authority Key Identifier: 
                keyid:E3:DD:F6:C4:46:8D:52:02:B8:FA:7C:05:25:1F:B0:65:F9:8F:AB:CF
                DirName:/C=US/ST=Virginia/L=Harrisonburg/O=JMU/OU=CS/CN=Crypto RSA CA - 2014/emailAddress=wangxx@jmu.edu
                serial:86:C6:84:22:83:8D:C2:BE

    Signature Algorithm: sha512WithRSAEncryption
         4f:a8:37:9c:96:4e:f4:30:77:36:8a:2b:28:07:81:0c:bb:dd:
         84:89:45:a9:aa:22:89:78:8d:35:87:e7:d6:04:a5:89:9e:41:
         88:56:76:ea:3f:8d:20:33:84:62:e2:d7:3d:6d:3c:9f:5b:a7:
         a2:a4:37:39:3f:a0:32:c8:27:45:27:cd:88:41:da:e2:c7:70:
         1e:d6:c7:e5:a1:4f:7c:c8:bc:a1:89:fe:0c:13:71:7b:c3:11:
         82:17:e3:fd:f2:51:a7:6a:3d:4f:b8:40:6b:e1:48:8f:97:bc:
         6d:0d:56:75:f7:4d:20:6f:c8:cb:a9:74:3e:68:49:ba:a5:32:
         9a:0d:ed:15:9a:c6:ad:fa:2d:08:39:07:b9:5a:eb:b9:40:be:
         32:03:93:ca:b6:82:98:fc:c2:1f:6e:c6:6e:c7:44:cb:18:bd:
         28:b5:71:e7:35:cc:ba:b2:a5:a6:1b:ab:ab:2b:ec:f9:41:1e:
         0c:37:10:5e:eb:4a:12:b0:f3:48:56:30:02:2a:a8:a4:70:89:
         21:f5:b3:09:03:a8:28:30:34:cc:70:e7:f3:07:70:96:d0:49:
         be:bf:84:b5:fa:63:43:3f:8e:cc:42:a2:cd:f1:10:08:ec:1b:
         e7:62:c2:29:a3:4a:93:3f:3c:18:0a:6f:e6:f2:01:5d:8c:70:
         83:b5:58:9d:11:61:e5:f0:9c:1e:4e:10:8e:9f:9c:b7:89:92:
         46:3d:99:cd:da:2f:ee:f4:3c:89:8a:59:93:1c:87:49:a5:02:
         40:20:37:43:17:b3:3c:77:57:cb:7b:a3:3b:c3:f4:f7:c5:15:
         5e:bc:2c:aa:ee:7c:a9:20:d4:d4:c8:ea:ac:5f:ca:ee:23:65:
         5d:c2:39:90:0d:59:c9:e1:74:a7:10:df:d1:b1:0a:86:a6:10:
         d3:48:30:7c:7d:58:a7:c9:47:26:ee:da:8b:70:07:e9:85:9f:
         89:7e:8e:ca:0d:12:32:a3:2d:52:49:76:5d:67:ea:77:77:e8:
         e1:68:78:1f:bc:24:43:24:56:68:e9:33:8f:4a:88:37:2f:90:
         57:36:e9:92:51:12:1a:16:ce:08:a8:9a:26:c6:c4:2e:b1:5a:
         73:d9:6d:b4:97:ec:9b:8a:03:b9:54:97:29:28:34:e3:88:cb:
         cf:34:6d:07:aa:13:bd:09:67:a7:98:01:e6:bd:6d:ff:0d:17:
         f8:42:8c:c0:bb:3e:79:7c:0d:c0:f1:ac:bc:1e:1a:15:11:4f:
         14:a2:16:d1:b9:ef:34:69:2b:46:a0:02:c7:68:7f:ac:64:76:
         1a:28:de:0f:e7:7a:89:e9:be:3f:e1:bb:58:b4:ed:67:b2:9c:
         0a:ba:3e:58:1d:2c:80:55
-----BEGIN CERTIFICATE-----
MIIFpDCCA4ygAwIBAgIBKjANBgkqhkiG9w0BAQ0FADCBkDELMAkGA1UEBhMCVVMx
ETAPBgNVBAgMCFZpcmdpbmlhMRUwEwYDVQQHDAxIYXJyaXNvbmJ1cmcxDDAKBgNV
BAoMA0pNVTELMAkGA1UECwwCQ1MxHTAbBgNVBAMMFENyeXB0byBSU0EgQ0EgLSAy
MDE0MR0wGwYJKoZIhvcNAQkBFg53YW5neHhAam11LmVkdTAeFw0xNDA4MzAwMTEx
MDNaFw0xNTAyMjYwMTExMDNaMHIxCzAJBgNVBAYTAlVTMQswCQYDVQQIEwJWQTEV
MBMGA1UEBxMMSGFycmlzb25idXJnMQwwCgYDVQQKEwNKTVUxCzAJBgNVBAsTAkNT
MSQwIgYDVQQDExtDUzY4NSBUTFMgQ2xpZW50IEpPU0ggRkVFSFMwggEiMA0GCSqG
SIb3DQEBAQUAA4IBDwAwggEKAoIBAQC2rPlNPKh2roMpDD9lkRdMjBjU+X+/Wsd7
r7EAghM9H5CRUbgZn6LowLBdA6lptqm9fDTCtO7fYhqZAhzd2G3R749FArft3fTO
IoQAmGW4iKRWY0el8uGK4UTzDIiU8+d+ZRm/XpkOi5SHJIxP7Z/q1E21BGhaJlUG
qFLYbS2rjTeNbxV3xWHDGiD1JtvTXsHvw3YEcp/asoGe3oVS7T1n2epTYmOA13ZS
67vXY4/ylh6JfXm0t7iqGA3XkruQ9EqmAoPsk/6RUy9vT9SrnBdDVsi/iyK22dVW
pmC0FYf2QXf0NRLV+pzPPieC3+JY6ErR+jsP9xqdVrFSoKmwY9/tAgMBAAGjggEk
MIIBIDAJBgNVHRMEAjAAMCwGCWCGSAGG+EIBDQQfFh1PcGVuU1NMIEdlbmVyYXRl
ZCBDZXJ0aWZpY2F0ZTAdBgNVHQ4EFgQUAbaVpfGG8XcaqL+xWGIpvilbeW4wgcUG
A1UdIwSBvTCBuoAU4932xEaNUgK4+nwFJR+wZfmPq8+hgZakgZMwgZAxCzAJBgNV
BAYTAlVTMREwDwYDVQQIDAhWaXJnaW5pYTEVMBMGA1UEBwwMSGFycmlzb25idXJn
MQwwCgYDVQQKDANKTVUxCzAJBgNVBAsMAkNTMR0wGwYDVQQDDBRDcnlwdG8gUlNB
IENBIC0gMjAxNDEdMBsGCSqGSIb3DQEJARYOd2FuZ3h4QGptdS5lZHWCCQCGxoQi
g43CvjANBgkqhkiG9w0BAQ0FAAOCAgEAT6g3nJZO9DB3NoorKAeBDLvdhIlFqaoi
iXiNNYfn1gSliZ5BiFZ26j+NIDOEYuLXPW08n1unoqQ3OT+gMsgnRSfNiEHa4sdw
HtbH5aFPfMi8oYn+DBNxe8MRghfj/fJRp2o9T7hAa+FIj5e8bQ1WdfdNIG/Iy6l0
PmhJuqUymg3tFZrGrfotCDkHuVrruUC+MgOTyraCmPzCH27GbsdEyxi9KLVx5zXM
urKlphurqyvs+UEeDDcQXutKErDzSFYwAiqopHCJIfWzCQOoKDA0zHDn8wdwltBJ
vr+EtfpjQz+OzEKizfEQCOwb52LCKaNKkz88GApv5vIBXYxwg7VYnRFh5fCcHk4Q
jp+ct4mSRj2Zzdov7vQ8iYpZkxyHSaUCQCA3QxezPHdXy3ujO8P098UVXrwsqu58
qSDU1MjqrF/K7iNlXcI5kA1ZyeF0pxDf0bEKhqYQ00gwfH1Yp8lHJu7ai3AH6YWf
iX6Oyg0SMqMtUkl2XWfqd3fo4Wh4H7wkQyRWaOkzj0qINy+QVzbpklESGhbOCKia
JsbELrFac9lttJfsm4oDuVSXKSg044jLzzRtB6oTvQlnp5gB5r1t/w0X+EKMwLs+
eXwNwPGsvB4aFRFPFKIW0bnvNGkrRqACx2h/rGR2GijeD+d6iem+P+G7WLTtZ7Kc
Cro+WB0sgFU=
-----END CERTIFICATE-----
